target datalayout = "e-m:e-p270:32:32-p271:32:32-p272:64:64-i64:64-i128:128-f80:128-n8:16:32:64-S128"
target triple = "x86_64-pc-linux-gnu"

; Function Attrs: mustprogress nounwind uwtable
define noundef ptr @_ZN4ofbx10fromStringIiEEPKcS2_S2_PT_(ptr noundef %0, ptr noundef %1, ptr noundef %2) #0 {
  %4 = alloca ptr, align 8
  %5 = alloca ptr, align 8
  %6 = alloca ptr, align 8
  %7 = alloca ptr, align 8
  store ptr %0, ptr %4, align 8
  store ptr %1, ptr %5, align 8
  store ptr %2, ptr %6, align 8
  %8 = load ptr, ptr %4, align 8
  %9 = call i32 @atoi(ptr noundef %8) #14
  %10 = load ptr, ptr %6, align 8
  store i32 %9, ptr %10, align 4
  %11 = load ptr, ptr %4, align 8
  store ptr %11, ptr %7, align 8
  br label %12

12:                                               ; preds = %23, %3
  %13 = load ptr, ptr %7, align 8
  %14 = load ptr, ptr %5, align 8
  %15 = icmp ult ptr %13, %14
  br i1 %15, label %16, label %21

16:                                               ; preds = %12
  %17 = load ptr, ptr %7, align 8
  %18 = load i8, ptr %17, align 1
  %19 = sext i8 %18 to i32
  %20 = icmp ne i32 %19, 44
  br label %21

21:                                               ; preds = %16, %12
  %22 = phi i1 [ false, %12 ], [ %20, %16 ]
  br i1 %22, label %23, label %26

23:                                               ; preds = %21
  %24 = load ptr, ptr %7, align 8
  %25 = getelementptr inbounds i8, ptr %24, i32 1
  store ptr %25, ptr %7, align 8
  br label %12, !llvm.loop !9

26:                                               ; preds = %21
  %27 = load ptr, ptr %7, align 8
  %28 = load ptr, ptr %5, align 8
  %29 = icmp ult ptr %27, %28
  br i1 %29, label %30, label %33

30:                                               ; preds = %26
  %31 = load ptr, ptr %7, align 8
  %32 = getelementptr inbounds i8, ptr %31, i32 1
  store ptr %32, ptr %7, align 8
  br label %33

33:                                               ; preds = %30, %26
  %34 = load ptr, ptr %7, align 8
  ret ptr %34
}